target datalayout = "e-m:e-p270:32:32-p271:32:32-p272:64:64-i64:64-i128:128-f80:128-n8:16:32:64-S128"
target triple = "x86_64-pc-linux-gnu"

%struct.UCHARBUF = type { ptr, ptr, ptr, i32, i32, i32, ptr, ptr, i8, i8 }

; Function Attrs: inlinehint mustprogress nounwind uwtable
define internal noundef signext i8 @_ZL9U_FAILURE10UErrorCode(i32 noundef %0) #4 {
  %2 = alloca i32, align 4
  store i32 %0, ptr %2, align 4, !tbaa !24
  %3 = load i32, ptr %2, align 4, !tbaa !24
  %4 = icmp sgt i32 %3, 0
  %5 = zext i1 %4 to i8
  ret i8 %5
}

; Function Attrs: mustprogress uwtable
define i32 @ucbuf_getc32(ptr noundef %0, ptr noundef %1) #0 {
  %3 = alloca i32, align 4
  %4 = alloca ptr, align 8
  %5 = alloca ptr, align 8
  %6 = alloca i32, align 4
  %7 = alloca i32, align 4
  store ptr %0, ptr %4, align 8, !tbaa !28
  store ptr %1, ptr %5, align 8, !tbaa !15
  call void @llvm.lifetime.start.p0(i64 4, ptr %6) #10
  store i32 -1, ptr %6, align 4, !tbaa !16
  %8 = load ptr, ptr %5, align 8, !tbaa !15
  %9 = icmp eq ptr %8, null
  br i1 %9, label %15, label %10

10:                                               ; preds = %2
  %11 = load ptr, ptr %5, align 8, !tbaa !15
  %12 = load i32, ptr %11, align 4, !tbaa !24
  %13 = call noundef signext i8 @_ZL9U_FAILURE10UErrorCode(i32 noundef %12)
  %14 = icmp ne i8 %13, 0
  br i1 %14, label %15, label %16

15:                                               ; preds = %10, %2
  store i32 0, ptr %3, align 4
  store i32 1, ptr %7, align 4
  br label %78

16:                                               ; preds = %10
  %17 = load ptr, ptr %4, align 8, !tbaa !28
  %18 = getelementptr inbounds nuw %struct.UCHARBUF, ptr %17, i32 0, i32 1
  %19 = load ptr, ptr %18, align 8, !tbaa !30
  %20 = getelementptr inbounds i16, ptr %19, i64 1
  %21 = load ptr, ptr %4, align 8, !tbaa !28
  %22 = getelementptr inbounds nuw %struct.UCHARBUF, ptr %21, i32 0, i32 2
  %23 = load ptr, ptr %22, align 8, !tbaa !32
  %24 = icmp uge ptr %20, %23
  br i1 %24, label %25, label %41

25:                                               ; preds = %16
  %26 = load ptr, ptr %4, align 8, !tbaa !28
  %27 = getelementptr inbounds nuw %struct.UCHARBUF, ptr %26, i32 0, i32 4
  %28 = load i32, ptr %27, align 4, !tbaa !33
  %29 = icmp eq i32 %28, 0
  br i1 %29, label %30, label %31

30:                                               ; preds = %25
  store i32 -1, ptr %3, align 4
  store i32 1, ptr %7, align 4
  br label %78

31:                                               ; preds = %25
  %32 = load ptr, ptr %4, align 8, !tbaa !28
  %33 = load ptr, ptr %5, align 8, !tbaa !15
  %34 = call noundef ptr @_ZL15ucbuf_fillucbufP8UCHARBUFP10UErrorCode(ptr noundef %32, ptr noundef %33)
  store ptr %34, ptr %4, align 8, !tbaa !28
  %35 = load ptr, ptr %5, align 8, !tbaa !15
  %36 = load i32, ptr %35, align 4, !tbaa !24
  %37 = call noundef signext i8 @_ZL9U_FAILURE10UErrorCode(i32 noundef %36)
  %38 = icmp ne i8 %37, 0
  br i1 %38, label %39, label %40

39:                                               ; preds = %31
  store i32 -1, ptr %3, align 4
  store i32 1, ptr %7, align 4
  br label %78

40:                                               ; preds = %31
  br label %41

41:                                               ; preds = %40, %16
  %42 = load ptr, ptr %4, align 8, !tbaa !28
  %43 = getelementptr inbounds nuw %struct.UCHARBUF, ptr %42, i32 0, i32 1
  %44 = load ptr, ptr %43, align 8, !tbaa !30
  %45 = load i16, ptr %44, align 2, !tbaa !26
  %46 = zext i16 %45 to i32
  %47 = and i32 %46, -1024
  %48 = icmp eq i32 %47, 55296
  br i1 %48, label %49, label %69

49:                                               ; preds = %41
  %50 = load ptr, ptr %4, align 8, !tbaa !28
  %51 = getelementptr inbounds nuw %struct.UCHARBUF, ptr %50, i32 0, i32 1
  %52 = load ptr, ptr %51, align 8, !tbaa !30
  %53 = getelementptr inbounds i16, ptr %52, i64 0
  %54 = load i16, ptr %53, align 2, !tbaa !26
  %55 = zext i16 %54 to i32
  %56 = shl i32 %55, 10
  %57 = load ptr, ptr %4, align 8, !tbaa !28
  %58 = getelementptr inbounds nuw %struct.UCHARBUF, ptr %57, i32 0, i32 1
  %59 = load ptr, ptr %58, align 8, !tbaa !30
  %60 = getelementptr inbounds i16, ptr %59, i64 1
  %61 = load i16, ptr %60, align 2, !tbaa !26
  %62 = zext i16 %61 to i32
  %63 = add nsw i32 %56, %62
  %64 = sub nsw i32 %63, 56613888
  store i32 %64, ptr %6, align 4, !tbaa !16
  %65 = load ptr, ptr %4, align 8, !tbaa !28
  %66 = getelementptr inbounds nuw %struct.UCHARBUF, ptr %65, i32 0, i32 1
  %67 = load ptr, ptr %66, align 8, !tbaa !30
  %68 = getelementptr inbounds i16, ptr %67, i64 2
  store ptr %68, ptr %66, align 8, !tbaa !30
  br label %76

69:                                               ; preds = %41
  %70 = load ptr, ptr %4, align 8, !tbaa !28
  %71 = getelementptr inbounds nuw %struct.UCHARBUF, ptr %70, i32 0, i32 1
  %72 = load ptr, ptr %71, align 8, !tbaa !30
  %73 = getelementptr inbounds nuw i16, ptr %72, i32 1
  store ptr %73, ptr %71, align 8, !tbaa !30
  %74 = load i16, ptr %72, align 2, !tbaa !26
  %75 = zext i16 %74 to i32
  store i32 %75, ptr %6, align 4, !tbaa !16
  br label %76

76:                                               ; preds = %69, %49
  %77 = load i32, ptr %6, align 4, !tbaa !16
  store i32 %77, ptr %3, align 4
  store i32 1, ptr %7, align 4
  br label %78

78:                                               ; preds = %76, %39, %30, %15
  call void @llvm.lifetime.end.p0(i64 4, ptr %6) #10
  %79 = load i32, ptr %3, align 4
  ret i32 %79
}