; Function Attrs: mustprogress uwtable
define range(i32 -1, 10559488) i32 @ucbuf_getc32(ptr noundef %0, ptr noundef %1) local_unnamed_addr #0 {
  %3 = icmp eq ptr %1, null
  br i1 %3, label %36, label %4

4:                                                ; preds = %2
  %5 = load i32, ptr %1, align 4, !tbaa !14
  %6 = icmp slt i32 %5, 1
  br i1 %6, label %7, label %36

7:                                                ; preds = %4
  %8 = getelementptr inbounds nuw i8, ptr %0, i64 8
  %9 = load ptr, ptr %8, align 8, !tbaa !16
  %10 = getelementptr inbounds nuw i8, ptr %9, i64 2
  %11 = getelementptr inbounds nuw i8, ptr %0, i64 16
  %12 = load ptr, ptr %11, align 8, !tbaa !19
  %.not17 = icmp ult ptr %10, %12
  br i1 %.not17, label %21, label %13

13:                                               ; preds = %7
  %14 = getelementptr inbounds nuw i8, ptr %0, i64 28
  %15 = load i32, ptr %14, align 4, !tbaa !20
  %16 = icmp eq i32 %15, 0
  br i1 %16, label %36, label %17

17:                                               ; preds = %13
  %18 = tail call fastcc noundef ptr @_ZL15ucbuf_fillucbufP8UCHARBUFP10UErrorCode(ptr noundef nonnull %0, ptr noundef nonnull %1)
  %19 = load i32, ptr %1, align 4, !tbaa !14
  %20 = icmp slt i32 %19, 1
  br i1 %20, label %._crit_edge, label %36

._crit_edge:                                      ; preds = %17
  %.phi.trans.insert = getelementptr inbounds nuw i8, ptr %18, i64 8
  %.pre = load ptr, ptr %.phi.trans.insert, align 8, !tbaa !16
  br label %21

21:                                               ; preds = %._crit_edge, %7
  %22 = phi ptr [ %.pre, %._crit_edge ], [ %9, %7 ]
  %.015 = phi ptr [ %18, %._crit_edge ], [ %0, %7 ]
  %23 = getelementptr inbounds nuw i8, ptr %.015, i64 8
  %24 = load i16, ptr %22, align 2, !tbaa !21
  %25 = zext i16 %24 to i32
  %26 = and i32 %25, 64512
  %27 = icmp eq i32 %26, 55296
  br i1 %27, label %28, label %.sink.split

28:                                               ; preds = %21
  %29 = shl nuw nsw i32 %25, 10
  %30 = getelementptr inbounds nuw i8, ptr %22, i64 2
  %31 = load i16, ptr %30, align 2, !tbaa !21
  %32 = zext i16 %31 to i32
  %33 = add nsw i32 %29, -56613888
  %34 = add nuw nsw i32 %33, %32
  br label %.sink.split

.sink.split:                                      ; preds = %21, %28
  %.sink19 = phi i64 [ 4, %28 ], [ 2, %21 ]
  %.014.ph = phi i32 [ %34, %28 ], [ %25, %21 ]
  %35 = getelementptr inbounds nuw i8, ptr %22, i64 %.sink19
  store ptr %35, ptr %23, align 8, !tbaa !16
  br label %36

36:                                               ; preds = %.sink.split, %17, %13, %2, %4
  %.014 = phi i32 [ 0, %4 ], [ 0, %2 ], [ -1, %13 ], [ -1, %17 ], [ %.014.ph, %.sink.split ]
  ret i32 %.014
}